; Function Attrs: nounwind uwtable
define hidden range(i32 0, 2) i32 @CBB_finish(ptr noundef captures(none) %0, ptr noundef writeonly captures(address_is_null) %1, ptr noundef writeonly captures(address_is_null) %2) local_unnamed_addr #8 {
  %4 = getelementptr inbounds nuw i8, ptr %0, i64 26
  %5 = load i8, ptr %4, align 2, !tbaa !20
  %.not = icmp eq i8 %5, 0
  br i1 %.not, label %20, label %6

6:                                                ; preds = %3
  %7 = tail call i32 @CBB_flush(ptr noundef nonnull %0)
  %.not16 = icmp eq i32 %7, 0
  br i1 %.not16, label %20, label %8

8:                                                ; preds = %6
  %9 = load ptr, ptr %0, align 8, !tbaa !16
  %10 = getelementptr inbounds nuw i8, ptr %9, i64 24
  %11 = load i8, ptr %10, align 8, !tbaa !15
  %.not17 = icmp eq i8 %11, 0
  %.not18 = icmp eq ptr %1, null
  br i1 %.not17, label %14, label %12

12:                                               ; preds = %8
  %13 = icmp eq ptr %2, null
  %or.cond = or i1 %.not18, %13
  br i1 %or.cond, label %20, label %.thread

14:                                               ; preds = %8
  br i1 %.not18, label %16, label %.thread

.thread:                                          ; preds = %12, %14
  %15 = load ptr, ptr %9, align 8, !tbaa !6
  store ptr %15, ptr %1, align 8, !tbaa !21
  br label %16

16:                                               ; preds = %.thread, %14
  %.not19 = icmp eq ptr %2, null
  br i1 %.not19, label %CBB_cleanup.exit, label %17

17:                                               ; preds = %16
  %18 = getelementptr inbounds nuw i8, ptr %9, i64 8
  %19 = load i64, ptr %18, align 8, !tbaa !13
  store i64 %19, ptr %2, align 8, !tbaa !22
  br label %CBB_cleanup.exit

CBB_cleanup.exit:                                 ; preds = %16, %17
  tail call void @free(ptr noundef nonnull %9) #15
  store ptr null, ptr %0, align 8, !tbaa !16
  br label %20

20:                                               ; preds = %12, %6, %3, %CBB_cleanup.exit
  %.0 = phi i32 [ 1, %CBB_cleanup.exit ], [ 0, %3 ], [ 0, %6 ], [ 0, %12 ]
  ret i32 %.0
}